target datalayout = "e-m:e-p270:32:32-p271:32:32-p272:64:64-i64:64-i128:128-f80:128-n8:16:32:64-S128"
target triple = "x86_64-pc-linux-gnu"

%struct.H2645SEIFramePacking = type { i32, i32, i32, i32, i32, i32, i32, i32 }

@.str.4 = private unnamed_addr constant [16 x i8] c"checkerboard_rl\00", align 1
@.str.5 = private unnamed_addr constant [16 x i8] c"checkerboard_lr\00", align 1
@.str.6 = private unnamed_addr constant [19 x i8] c"col_interleaved_rl\00", align 1
@.str.7 = private unnamed_addr constant [19 x i8] c"col_interleaved_lr\00", align 1
@.str.8 = private unnamed_addr constant [19 x i8] c"row_interleaved_rl\00", align 1
@.str.9 = private unnamed_addr constant [19 x i8] c"row_interleaved_lr\00", align 1
@.str.10 = private unnamed_addr constant [11 x i8] c"right_left\00", align 1
@.str.11 = private unnamed_addr constant [11 x i8] c"left_right\00", align 1
@.str.12 = private unnamed_addr constant [11 x i8] c"bottom_top\00", align 1
@.str.13 = private unnamed_addr constant [11 x i8] c"top_bottom\00", align 1
@.str.14 = private unnamed_addr constant [9 x i8] c"block_rl\00", align 1
@.str.15 = private unnamed_addr constant [9 x i8] c"block_lr\00", align 1
@.str.16 = private unnamed_addr constant [5 x i8] c"mono\00", align 1

; Function Attrs: nounwind uwtable
define ptr @ff_h264_sei_stereo_mode(ptr noundef %0) #0 {
  %2 = alloca ptr, align 8
  %3 = alloca ptr, align 8
  store ptr %0, ptr %3, align 8, !tbaa !119
  %4 = load ptr, ptr %3, align 8, !tbaa !119
  %5 = getelementptr inbounds nuw %struct.H2645SEIFramePacking, ptr %4, i32 0, i32 2
  %6 = load i32, ptr %5, align 4, !tbaa !121
  %7 = icmp eq i32 %6, 0
  br i1 %7, label %8, label %56

8:                                                ; preds = %1
  %9 = load ptr, ptr %3, align 8, !tbaa !119
  %10 = getelementptr inbounds nuw %struct.H2645SEIFramePacking, ptr %9, i32 0, i32 3
  %11 = load i32, ptr %10, align 4, !tbaa !122
  switch i32 %11, label %55 [
    i32 0, label %12
    i32 1, label %19
    i32 2, label %26
    i32 3, label %33
    i32 4, label %40
    i32 5, label %47
    i32 6, label %54
  ]

12:                                               ; preds = %8
  %13 = load ptr, ptr %3, align 8, !tbaa !119
  %14 = getelementptr inbounds nuw %struct.H2645SEIFramePacking, ptr %13, i32 0, i32 5
  %15 = load i32, ptr %14, align 4, !tbaa !123
  %16 = icmp eq i32 %15, 2
  br i1 %16, label %17, label %18

17:                                               ; preds = %12
  store ptr @.str.4, ptr %2, align 8
  br label %63

18:                                               ; preds = %12
  store ptr @.str.5, ptr %2, align 8
  br label %63

19:                                               ; preds = %8
  %20 = load ptr, ptr %3, align 8, !tbaa !119
  %21 = getelementptr inbounds nuw %struct.H2645SEIFramePacking, ptr %20, i32 0, i32 5
  %22 = load i32, ptr %21, align 4, !tbaa !123
  %23 = icmp eq i32 %22, 2
  br i1 %23, label %24, label %25

24:                                               ; preds = %19
  store ptr @.str.6, ptr %2, align 8
  br label %63

25:                                               ; preds = %19
  store ptr @.str.7, ptr %2, align 8
  br label %63

26:                                               ; preds = %8
  %27 = load ptr, ptr %3, align 8, !tbaa !119
  %28 = getelementptr inbounds nuw %struct.H2645SEIFramePacking, ptr %27, i32 0, i32 5
  %29 = load i32, ptr %28, align 4, !tbaa !123
  %30 = icmp eq i32 %29, 2
  br i1 %30, label %31, label %32

31:                                               ; preds = %26
  store ptr @.str.8, ptr %2, align 8
  br label %63

32:                                               ; preds = %26
  store ptr @.str.9, ptr %2, align 8
  br label %63

33:                                               ; preds = %8
  %34 = load ptr, ptr %3, align 8, !tbaa !119
  %35 = getelementptr inbounds nuw %struct.H2645SEIFramePacking, ptr %34, i32 0, i32 5
  %36 = load i32, ptr %35, align 4, !tbaa !123
  %37 = icmp eq i32 %36, 2
  br i1 %37, label %38, label %39

38:                                               ; preds = %33
  store ptr @.str.10, ptr %2, align 8
  br label %63

39:                                               ; preds = %33
  store ptr @.str.11, ptr %2, align 8
  br label %63

40:                                               ; preds = %8
  %41 = load ptr, ptr %3, align 8, !tbaa !119
  %42 = getelementptr inbounds nuw %struct.H2645SEIFramePacking, ptr %41, i32 0, i32 5
  %43 = load i32, ptr %42, align 4, !tbaa !123
  %44 = icmp eq i32 %43, 2
  br i1 %44, label %45, label %46

45:                                               ; preds = %40
  store ptr @.str.12, ptr %2, align 8
  br label %63

46:                                               ; preds = %40
  store ptr @.str.13, ptr %2, align 8
  br label %63

47:                                               ; preds = %8
  %48 = load ptr, ptr %3, align 8, !tbaa !119
  %49 = getelementptr inbounds nuw %struct.H2645SEIFramePacking, ptr %48, i32 0, i32 5
  %50 = load i32, ptr %49, align 4, !tbaa !123
  %51 = icmp eq i32 %50, 2
  br i1 %51, label %52, label %53

52:                                               ; preds = %47
  store ptr @.str.14, ptr %2, align 8
  br label %63

53:                                               ; preds = %47
  store ptr @.str.15, ptr %2, align 8
  br label %63

54:                                               ; preds = %8
  br label %55

55:                                               ; preds = %8, %54
  store ptr @.str.16, ptr %2, align 8
  br label %63

56:                                               ; preds = %1
  %57 = load ptr, ptr %3, align 8, !tbaa !119
  %58 = getelementptr inbounds nuw %struct.H2645SEIFramePacking, ptr %57, i32 0, i32 2
  %59 = load i32, ptr %58, align 4, !tbaa !121
  %60 = icmp eq i32 %59, 1
  br i1 %60, label %61, label %62

61:                                               ; preds = %56
  store ptr @.str.16, ptr %2, align 8
  br label %63

62:                                               ; preds = %56
  store ptr null, ptr %2, align 8
  br label %63

63:                                               ; preds = %62, %61, %55, %53, %52, %46, %45, %39, %38, %32, %31, %25, %24, %18, %17
  %64 = load ptr, ptr %2, align 8
  ret ptr %64
}