; Function Attrs: mustprogress nofree norecurse nosync nounwind willreturn memory(argmem: read) uwtable
define ptr @ff_h264_sei_stereo_mode(ptr noundef readonly captures(none) %0) local_unnamed_addr #3 {
  %2 = getelementptr inbounds nuw i8, ptr %0, i64 8
  %3 = load i32, ptr %2, align 4, !tbaa !101
  switch i32 %3, label %31 [
    i32 0, label %4
    i32 1, label %32
  ]

4:                                                ; preds = %1
  %5 = getelementptr inbounds nuw i8, ptr %0, i64 12
  %6 = load i32, ptr %5, align 4, !tbaa !102
  switch i32 %6, label %32 [
    i32 0, label %7
    i32 1, label %11
    i32 2, label %15
    i32 3, label %19
    i32 4, label %23
    i32 5, label %27
  ]

7:                                                ; preds = %4
  %8 = getelementptr inbounds nuw i8, ptr %0, i64 20
  %9 = load i32, ptr %8, align 4, !tbaa !103
  %10 = icmp eq i32 %9, 2
  %.str.4..str.5 = select i1 %10, ptr @.str.4, ptr @.str.5
  br label %32

11:                                               ; preds = %4
  %12 = getelementptr inbounds nuw i8, ptr %0, i64 20
  %13 = load i32, ptr %12, align 4, !tbaa !103
  %14 = icmp eq i32 %13, 2
  %.str.6..str.7 = select i1 %14, ptr @.str.6, ptr @.str.7
  br label %32

15:                                               ; preds = %4
  %16 = getelementptr inbounds nuw i8, ptr %0, i64 20
  %17 = load i32, ptr %16, align 4, !tbaa !103
  %18 = icmp eq i32 %17, 2
  %.str.8..str.9 = select i1 %18, ptr @.str.8, ptr @.str.9
  br label %32

19:                                               ; preds = %4
  %20 = getelementptr inbounds nuw i8, ptr %0, i64 20
  %21 = load i32, ptr %20, align 4, !tbaa !103
  %22 = icmp eq i32 %21, 2
  %.str.10..str.11 = select i1 %22, ptr @.str.10, ptr @.str.11
  br label %32

23:                                               ; preds = %4
  %24 = getelementptr inbounds nuw i8, ptr %0, i64 20
  %25 = load i32, ptr %24, align 4, !tbaa !103
  %26 = icmp eq i32 %25, 2
  %.str.12..str.13 = select i1 %26, ptr @.str.12, ptr @.str.13
  br label %32

27:                                               ; preds = %4
  %28 = getelementptr inbounds nuw i8, ptr %0, i64 20
  %29 = load i32, ptr %28, align 4, !tbaa !103
  %30 = icmp eq i32 %29, 2
  %.str.14..str.15 = select i1 %30, ptr @.str.14, ptr @.str.15
  br label %32

31:                                               ; preds = %1
  br label %32

32:                                               ; preds = %1, %4, %27, %23, %19, %15, %11, %7, %31
  %.0 = phi ptr [ null, %31 ], [ %.str.4..str.5, %7 ], [ %.str.6..str.7, %11 ], [ %.str.8..str.9, %15 ], [ %.str.10..str.11, %19 ], [ %.str.12..str.13, %23 ], [ %.str.14..str.15, %27 ], [ @.str.16, %4 ], [ @.str.16, %1 ]
  ret ptr %.0
}